target datalayout = "e-m:e-p270:32:32-p271:32:32-p272:64:64-i64:64-i128:128-f80:128-n8:16:32:64-S128"
target triple = "x86_64-pc-linux-gnu"

%"class.std::__cxx11::basic_string" = type { %"struct.std::__cxx11::basic_string<char>::_Alloc_hider", i64, %union.anon }
%"struct.std::__cxx11::basic_string<char>::_Alloc_hider" = type { ptr }
%union.anon = type { i64, [8 x i8] }
%"struct.faiss::IOWriter" = type { ptr, %"class.std::__cxx11::basic_string" }
%"class.std::vector.3" = type { %"struct.std::_Vector_base.4" }
%"struct.std::_Vector_base.4" = type { %"struct.std::_Vector_base<char, std::allocator<char>>::_Vector_impl" }
%"struct.std::_Vector_base<char, std::allocator<char>>::_Vector_impl" = type { %"struct.std::_Vector_base<char, std::allocator<char>>::_Vector_impl_data" }
%"struct.std::_Vector_base<char, std::allocator<char>>::_Vector_impl_data" = type { ptr, ptr, ptr }
%"struct.faiss::BufferedIOWriter" = type { %"struct.faiss::IOWriter", ptr, i64, i64, i64, i64, %"class.std::vector.3" }

@.str.1 = private unnamed_addr constant [107 x i8] c"generated/home/dtcxzyw/WorkSpace/Projects/compilers/llvm-opt-benchmark/bench/faiss/faiss/faiss/impl/io.cpp\00", align 1
@_ZTIN5faiss14FaissExceptionE = external constant ptr
@.str.12 = private unnamed_addr constant [19 x i8] c"Error: '%s' failed\00", align 1
@.str.13 = private unnamed_addr constant [12 x i8] c"written > 0\00", align 1
@__PRETTY_FUNCTION__._ZN5faiss16BufferedIOWriterclEPKvmm = private unnamed_addr constant [81 x i8] c"virtual size_t faiss::BufferedIOWriter::operator()(const void *, size_t, size_t)\00", align 1

; Function Attrs: mustprogress nounwind uwtable
define linkonce_odr noundef ptr @_ZNKSt6vectorIcSaIcEE11_M_data_ptrIcEEPT_S4_(ptr noundef nonnull align 8 dereferenceable(24) %0, ptr noundef %1) #1 comdat align 2 {
  %3 = alloca ptr, align 8
  %4 = alloca ptr, align 8
  store ptr %0, ptr %3, align 8
  store ptr %1, ptr %4, align 8
  %5 = load ptr, ptr %4, align 8
  ret ptr %5
}

; Function Attrs: mustprogress nounwind uwtable
define linkonce_odr noundef ptr @_ZNSt6vectorIcSaIcEE4dataEv(ptr noundef nonnull align 8 dereferenceable(24) %0) #1 comdat align 2 {
  %2 = alloca ptr, align 8
  store ptr %0, ptr %2, align 8
  %3 = load ptr, ptr %2, align 8
  %4 = getelementptr inbounds %"struct.std::_Vector_base.4", ptr %3, i32 0, i32 0
  %5 = getelementptr inbounds %"struct.std::_Vector_base<char, std::allocator<char>>::_Vector_impl_data", ptr %4, i32 0, i32 0
  %6 = load ptr, ptr %5, align 8
  %7 = call noundef ptr @_ZNKSt6vectorIcSaIcEE11_M_data_ptrIcEEPT_S4_(ptr noundef nonnull align 8 dereferenceable(24) %3, ptr noundef %6) #12
  ret ptr %7
}

; Function Attrs: mustprogress nounwind uwtable
define linkonce_odr noundef nonnull align 8 dereferenceable(8) ptr @_ZSt3minImERKT_S2_S2_(ptr noundef nonnull align 8 dereferenceable(8) %0, ptr noundef nonnull align 8 dereferenceable(8) %1) #1 comdat {
  %3 = alloca ptr, align 8
  %4 = alloca ptr, align 8
  %5 = alloca ptr, align 8
  store ptr %0, ptr %4, align 8
  store ptr %1, ptr %5, align 8
  %6 = load ptr, ptr %5, align 8
  %7 = load i64, ptr %6, align 8
  %8 = load ptr, ptr %4, align 8
  %9 = load i64, ptr %8, align 8
  %10 = icmp ult i64 %7, %9
  br i1 %10, label %11, label %13

11:                                               ; preds = %2
  %12 = load ptr, ptr %5, align 8
  store ptr %12, ptr %3, align 8
  br label %15

13:                                               ; preds = %2
  %14 = load ptr, ptr %4, align 8
  store ptr %14, ptr %3, align 8
  br label %15

15:                                               ; preds = %13, %11
  %16 = load ptr, ptr %3, align 8
  ret ptr %16
}

; Function Attrs: mustprogress uwtable
define noundef i64 @_ZN5faiss16BufferedIOWriterclEPKvmm(ptr noundef nonnull align 8 dereferenceable(104) %0, ptr noundef %1, i64 noundef %2, i64 noundef %3) unnamed_addr #0 align 2 personality ptr @__gxx_personality_v0 {
  %5 = alloca i64, align 8
  %6 = alloca ptr, align 8
  %7 = alloca ptr, align 8
  %8 = alloca i64, align 8
  %9 = alloca i64, align 8
  %10 = alloca i64, align 8
  %11 = alloca ptr, align 8
  %12 = alloca i64, align 8
  %13 = alloca i64, align 8
  %14 = alloca i64, align 8
  %15 = alloca i64, align 8
  %16 = alloca %"class.std::__cxx11::basic_string", align 8
  %17 = alloca i32, align 4
  %18 = alloca ptr, align 8
  %19 = alloca i32, align 4
  %20 = alloca i64, align 8
  store ptr %0, ptr %6, align 8
  store ptr %1, ptr %7, align 8
  store i64 %2, ptr %8, align 8
  store i64 %3, ptr %9, align 8
  %21 = load ptr, ptr %6, align 8
  %22 = load i64, ptr %8, align 8
  %23 = load i64, ptr %9, align 8
  %24 = mul i64 %22, %23
  store i64 %24, ptr %10, align 8
  %25 = load i64, ptr %10, align 8
  %26 = icmp eq i64 %25, 0
  br i1 %26, label %27, label %28

27:                                               ; preds = %4
  store i64 0, ptr %5, align 8
  br label %136

28:                                               ; preds = %4
  %29 = load ptr, ptr %7, align 8
  store ptr %29, ptr %11, align 8
  %30 = getelementptr inbounds %"struct.faiss::BufferedIOWriter", ptr %21, i32 0, i32 2
  %31 = load i64, ptr %30, align 8
  %32 = getelementptr inbounds %"struct.faiss::BufferedIOWriter", ptr %21, i32 0, i32 5
  %33 = load i64, ptr %32, align 8
  %34 = sub i64 %31, %33
  store i64 %34, ptr %13, align 8
  %35 = call noundef nonnull align 8 dereferenceable(8) ptr @_ZSt3minImERKT_S2_S2_(ptr noundef nonnull align 8 dereferenceable(8) %13, ptr noundef nonnull align 8 dereferenceable(8) %10)
  %36 = load i64, ptr %35, align 8
  store i64 %36, ptr %12, align 8
  %37 = getelementptr inbounds %"struct.faiss::BufferedIOWriter", ptr %21, i32 0, i32 6
  %38 = call noundef ptr @_ZNSt6vectorIcSaIcEE4dataEv(ptr noundef nonnull align 8 dereferenceable(24) %37) #12
  %39 = getelementptr inbounds %"struct.faiss::BufferedIOWriter", ptr %21, i32 0, i32 5
  %40 = load i64, ptr %39, align 8
  %41 = getelementptr inbounds i8, ptr %38, i64 %40
  %42 = load ptr, ptr %11, align 8
  %43 = load i64, ptr %12, align 8
  call void @llvm.memcpy.p0.p0.i64(ptr align 1 %41, ptr align 1 %42, i64 %43, i1 false)
  %44 = load i64, ptr %12, align 8
  %45 = getelementptr inbounds %"struct.faiss::BufferedIOWriter", ptr %21, i32 0, i32 5
  %46 = load i64, ptr %45, align 8
  %47 = add i64 %46, %44
  store i64 %47, ptr %45, align 8
  %48 = load i64, ptr %12, align 8
  %49 = load ptr, ptr %11, align 8
  %50 = getelementptr inbounds i8, ptr %49, i64 %48
  store ptr %50, ptr %11, align 8
  %51 = load i64, ptr %12, align 8
  %52 = load i64, ptr %10, align 8
  %53 = sub i64 %52, %51
  store i64 %53, ptr %10, align 8
  br label %54

54:                                               ; preds = %109, %28
  %55 = load i64, ptr %10, align 8
  %56 = icmp ugt i64 %55, 0
  br i1 %56, label %57, label %128

57:                                               ; preds = %54
  store i64 0, ptr %14, align 8
  br label %58

58:                                               ; preds = %104, %57
  %59 = getelementptr inbounds %"struct.faiss::BufferedIOWriter", ptr %21, i32 0, i32 1
  %60 = load ptr, ptr %59, align 8
  %61 = getelementptr inbounds %"struct.faiss::BufferedIOWriter", ptr %21, i32 0, i32 6
  %62 = call noundef ptr @_ZNSt6vectorIcSaIcEE4dataEv(ptr noundef nonnull align 8 dereferenceable(24) %61) #12
  %63 = load i64, ptr %14, align 8
  %64 = getelementptr inbounds i8, ptr %62, i64 %63
  %65 = getelementptr inbounds %"struct.faiss::BufferedIOWriter", ptr %21, i32 0, i32 2
  %66 = load i64, ptr %65, align 8
  %67 = load i64, ptr %14, align 8
  %68 = sub i64 %66, %67
  %69 = load ptr, ptr %60, align 8
  %70 = getelementptr inbounds ptr, ptr %69, i64 0
  %71 = load ptr, ptr %70, align 8
  %72 = call noundef i64 %71(ptr noundef nonnull align 8 dereferenceable(40) %60, ptr noundef %64, i64 noundef 1, i64 noundef %68)
  store i64 %72, ptr %15, align 8
  br label %73

73:                                               ; preds = %58
  %74 = load i64, ptr %15, align 8
  %75 = icmp ugt i64 %74, 0
  br i1 %75, label %99, label %76

76:                                               ; preds = %73
  br label %77

77:                                               ; preds = %76
  call void @_ZNSt7__cxx1112basic_stringIcSt11char_traitsIcESaIcEEC1Ev(ptr noundef nonnull align 8 dereferenceable(32) %16) #12
  %78 = call i32 (ptr, i64, ptr, ...) @snprintf(ptr noundef null, i64 noundef 0, ptr noundef @.str.12, ptr noundef @.str.13) #12
  store i32 %78, ptr %17, align 4
  %79 = load i32, ptr %17, align 4
  %80 = add nsw i32 %79, 1
  %81 = sext i32 %80 to i64
  invoke void @_ZNSt7__cxx1112basic_stringIcSt11char_traitsIcESaIcEE6resizeEm(ptr noundef nonnull align 8 dereferenceable(32) %16, i64 noundef %81)
          to label %82 unwind label %89

82:                                               ; preds = %77
  %83 = invoke noundef nonnull align 1 dereferenceable(1) ptr @_ZNSt7__cxx1112basic_stringIcSt11char_traitsIcESaIcEEixEm(ptr noundef nonnull align 8 dereferenceable(32) %16, i64 noundef 0)
          to label %84 unwind label %89

84:                                               ; preds = %82
  %85 = call noundef i64 @_ZNKSt7__cxx1112basic_stringIcSt11char_traitsIcESaIcEE4sizeEv(ptr noundef nonnull align 8 dereferenceable(32) %16) #12
  %86 = call i32 (ptr, i64, ptr, ...) @snprintf(ptr noundef %83, i64 noundef %85, ptr noundef @.str.12, ptr noundef @.str.13) #12
  %87 = call ptr @__cxa_allocate_exception(i64 40) #12
  invoke void @_ZN5faiss14FaissExceptionC1ERKNSt7__cxx1112basic_stringIcSt11char_traitsIcESaIcEEEPKcSA_i(ptr noundef nonnull align 8 dereferenceable(40) %87, ptr noundef nonnull align 8 dereferenceable(32) %16, ptr noundef @__PRETTY_FUNCTION__._ZN5faiss16BufferedIOWriterclEPKvmm, ptr noundef @.str.1, i32 noundef 203)
          to label %88 unwind label %93

88:                                               ; preds = %84
  invoke void @__cxa_throw(ptr %87, ptr @_ZTIN5faiss14FaissExceptionE, ptr @_ZN5faiss14FaissExceptionD2Ev) #13
          to label %143 unwind label %89

89:                                               ; preds = %88, %82, %77
  %90 = landingpad { ptr, i32 }
          cleanup
  %91 = extractvalue { ptr, i32 } %90, 0
  store ptr %91, ptr %18, align 8
  %92 = extractvalue { ptr, i32 } %90, 1
  store i32 %92, ptr %19, align 4
  br label %97

93:                                               ; preds = %84
  %94 = landingpad { ptr, i32 }
          cleanup
  %95 = extractvalue { ptr, i32 } %94, 0
  store ptr %95, ptr %18, align 8
  %96 = extractvalue { ptr, i32 } %94, 1
  store i32 %96, ptr %19, align 4
  call void @__cxa_free_exception(ptr %87) #12
  br label %97

97:                                               ; preds = %93, %89
  call void @_ZNSt7__cxx1112basic_stringIcSt11char_traitsIcESaIcEED1Ev(ptr noundef nonnull align 8 dereferenceable(32) %16) #12
  br label %138

98:                                               ; No predecessors!
  br label %99

99:                                               ; preds = %98, %73
  br label %100

100:                                              ; preds = %99
  %101 = load i64, ptr %15, align 8
  %102 = load i64, ptr %14, align 8
  %103 = add i64 %102, %101
  store i64 %103, ptr %14, align 8
  br label %104

104:                                              ; preds = %100
  %105 = load i64, ptr %14, align 8
  %106 = getelementptr inbounds %"struct.faiss::BufferedIOWriter", ptr %21, i32 0, i32 2
  %107 = load i64, ptr %106, align 8
  %108 = icmp ne i64 %105, %107
  br i1 %108, label %58, label %109, !llvm.loop !7

109:                                              ; preds = %104
  %110 = getelementptr inbounds %"struct.faiss::BufferedIOWriter", ptr %21, i32 0, i32 2
  %111 = call noundef nonnull align 8 dereferenceable(8) ptr @_ZSt3minImERKT_S2_S2_(ptr noundef nonnull align 8 dereferenceable(8) %110, ptr noundef nonnull align 8 dereferenceable(8) %10)
  %112 = load i64, ptr %111, align 8
  store i64 %112, ptr %20, align 8
  %113 = getelementptr inbounds %"struct.faiss::BufferedIOWriter", ptr %21, i32 0, i32 6
  %114 = call noundef ptr @_ZNSt6vectorIcSaIcEE4dataEv(ptr noundef nonnull align 8 dereferenceable(24) %113) #12
  %115 = load ptr, ptr %11, align 8
  %116 = load i64, ptr %20, align 8
  call void @llvm.memcpy.p0.p0.i64(ptr align 1 %114, ptr align 1 %115, i64 %116, i1 false)
  %117 = load i64, ptr %20, align 8
  %118 = getelementptr inbounds %"struct.faiss::BufferedIOWriter", ptr %21, i32 0, i32 5
  store i64 %117, ptr %118, align 8
  %119 = load i64, ptr %20, align 8
  %120 = load i64, ptr %12, align 8
  %121 = add i64 %120, %119
  store i64 %121, ptr %12, align 8
  %122 = load i64, ptr %20, align 8
  %123 = load ptr, ptr %11, align 8
  %124 = getelementptr inbounds i8, ptr %123, i64 %122
  store ptr %124, ptr %11, align 8
  %125 = load i64, ptr %20, align 8
  %126 = load i64, ptr %10, align 8
  %127 = sub i64 %126, %125
  store i64 %127, ptr %10, align 8
  br label %54, !llvm.loop !8

128:                                              ; preds = %54
  %129 = load i64, ptr %12, align 8
  %130 = getelementptr inbounds %"struct.faiss::BufferedIOWriter", ptr %21, i32 0, i32 4
  %131 = load i64, ptr %130, align 8
  %132 = add i64 %131, %129
  store i64 %132, ptr %130, align 8
  %133 = load i64, ptr %12, align 8
  %134 = load i64, ptr %8, align 8
  %135 = udiv i64 %133, %134
  store i64 %135, ptr %5, align 8
  br label %136

136:                                              ; preds = %128, %27
  %137 = load i64, ptr %5, align 8
  ret i64 %137

138:                                              ; preds = %97
  %139 = load ptr, ptr %18, align 8
  %140 = load i32, ptr %19, align 4
  %141 = insertvalue { ptr, i32 } poison, ptr %139, 0
  %142 = insertvalue { ptr, i32 } %141, i32 %140, 1
  resume { ptr, i32 } %142

143:                                              ; preds = %88
  unreachable
}