; Function Attrs: mustprogress uwtable
define noundef i64 @_ZN5faiss16BufferedIOWriterclEPKvmm(ptr nocapture noundef nonnull align 8 dereferenceable(104) %0, ptr nocapture noundef readonly %1, i64 noundef %2, i64 noundef %3) unnamed_addr #2 align 2 personality ptr @__gxx_personality_v0 {
  %5 = alloca %"class.std::__cxx11::basic_string", align 8
  %6 = mul i64 %3, %2
  %7 = icmp eq i64 %6, 0
  br i1 %7, label %59, label %8

8:                                                ; preds = %4
  %9 = getelementptr inbounds i8, ptr %0, i64 48
  %10 = load i64, ptr %9, align 8
  %11 = getelementptr inbounds i8, ptr %0, i64 72
  %12 = load i64, ptr %11, align 8
  %13 = sub i64 %10, %12
  %.sroa.speculated = tail call i64 @llvm.umin.i64(i64 %6, i64 %13)
  %14 = getelementptr inbounds i8, ptr %0, i64 80
  %15 = load ptr, ptr %14, align 8
  %16 = getelementptr inbounds i8, ptr %15, i64 %12
  tail call void @llvm.memcpy.p0.p0.i64(ptr align 1 %16, ptr align 1 %1, i64 %.sroa.speculated, i1 false)
  %17 = load i64, ptr %11, align 8
  %18 = add i64 %17, %.sroa.speculated
  store i64 %18, ptr %11, align 8
  %19 = sub i64 %6, %.sroa.speculated
  %.not54 = icmp eq i64 %19, 0
  br i1 %.not54, label %._crit_edge, label %.preheader.lr.ph

.preheader.lr.ph:                                 ; preds = %8
  %20 = getelementptr inbounds i8, ptr %1, i64 %.sroa.speculated
  %21 = getelementptr inbounds i8, ptr %0, i64 40
  br label %.preheader

.preheader:                                       ; preds = %.preheader.lr.ph, %50
  %.03257 = phi ptr [ %20, %.preheader.lr.ph ], [ %53, %50 ]
  %.03356 = phi i64 [ %.sroa.speculated, %.preheader.lr.ph ], [ %52, %50 ]
  %storemerge55 = phi i64 [ %19, %.preheader.lr.ph ], [ %54, %50 ]
  %.pre = load i64, ptr %9, align 8
  br label %22

22:                                               ; preds = %.preheader, %47
  %23 = phi i64 [ %49, %47 ], [ %.pre, %.preheader ]
  %.034 = phi i64 [ %48, %47 ], [ 0, %.preheader ]
  %24 = load ptr, ptr %21, align 8
  %25 = load ptr, ptr %14, align 8
  %26 = getelementptr inbounds i8, ptr %25, i64 %.034
  %27 = sub i64 %23, %.034
  %28 = load ptr, ptr %24, align 8
  %29 = load ptr, ptr %28, align 8
  %30 = tail call noundef i64 %29(ptr noundef nonnull align 8 dereferenceable(40) %24, ptr noundef %26, i64 noundef 1, i64 noundef %27)
  %.not37 = icmp eq i64 %30, 0
  br i1 %.not37, label %31, label %47

31:                                               ; preds = %22
  call void @_ZNSt7__cxx1112basic_stringIcSt11char_traitsIcESaIcEEC1Ev(ptr noundef nonnull align 8 dereferenceable(32) %5) #21
  %32 = call i32 (ptr, i64, ptr, ...) @snprintf(ptr noundef null, i64 noundef 0, ptr noundef nonnull @.str.12, ptr noundef nonnull @.str.13) #21
  %33 = add nsw i32 %32, 1
  %34 = sext i32 %33 to i64
  invoke void @_ZNSt7__cxx1112basic_stringIcSt11char_traitsIcESaIcEE6resizeEm(ptr noundef nonnull align 8 dereferenceable(32) %5, i64 noundef %34)
          to label %35 unwind label %42

35:                                               ; preds = %31
  %36 = invoke noundef nonnull align 1 dereferenceable(1) ptr @_ZNSt7__cxx1112basic_stringIcSt11char_traitsIcESaIcEEixEm(ptr noundef nonnull align 8 dereferenceable(32) %5, i64 noundef 0)
          to label %37 unwind label %42

37:                                               ; preds = %35
  %38 = call noundef i64 @_ZNKSt7__cxx1112basic_stringIcSt11char_traitsIcESaIcEE4sizeEv(ptr noundef nonnull align 8 dereferenceable(32) %5) #21
  %39 = call i32 (ptr, i64, ptr, ...) @snprintf(ptr noundef nonnull %36, i64 noundef %38, ptr noundef nonnull @.str.12, ptr noundef nonnull @.str.13) #21
  %40 = call ptr @__cxa_allocate_exception(i64 40) #21
  invoke void @_ZN5faiss14FaissExceptionC1ERKNSt7__cxx1112basic_stringIcSt11char_traitsIcESaIcEEEPKcSA_i(ptr noundef nonnull align 8 dereferenceable(40) %40, ptr noundef nonnull align 8 dereferenceable(32) %5, ptr noundef nonnull @__PRETTY_FUNCTION__._ZN5faiss16BufferedIOWriterclEPKvmm, ptr noundef nonnull @.str.1, i32 noundef 203)
          to label %41 unwind label %44

41:                                               ; preds = %37
  invoke void @__cxa_throw(ptr nonnull %40, ptr nonnull @_ZTIN5faiss14FaissExceptionE, ptr nonnull @_ZN5faiss14FaissExceptionD2Ev) #22
          to label %60 unwind label %42

42:                                               ; preds = %41, %35, %31
  %43 = landingpad { ptr, i32 }
          cleanup
  br label %46

44:                                               ; preds = %37
  %45 = landingpad { ptr, i32 }
          cleanup
  call void @__cxa_free_exception(ptr %40) #21
  br label %46

46:                                               ; preds = %44, %42
  %.pn = phi { ptr, i32 } [ %43, %42 ], [ %45, %44 ]
  call void @_ZNSt7__cxx1112basic_stringIcSt11char_traitsIcESaIcEED1Ev(ptr noundef nonnull align 8 dereferenceable(32) %5) #21
  resume { ptr, i32 } %.pn

47:                                               ; preds = %22
  %48 = add i64 %30, %.034
  %49 = load i64, ptr %9, align 8
  %.not39 = icmp eq i64 %48, %49
  br i1 %.not39, label %50, label %22, !llvm.loop !7

50:                                               ; preds = %47
  %.sroa.speculated46 = tail call i64 @llvm.umin.i64(i64 %storemerge55, i64 %48)
  %51 = load ptr, ptr %14, align 8
  tail call void @llvm.memcpy.p0.p0.i64(ptr align 1 %51, ptr align 1 %.03257, i64 %.sroa.speculated46, i1 false)
  store i64 %.sroa.speculated46, ptr %11, align 8
  %52 = add i64 %.sroa.speculated46, %.03356
  %53 = getelementptr inbounds i8, ptr %.03257, i64 %.sroa.speculated46
  %54 = sub i64 %storemerge55, %.sroa.speculated46
  %.not = icmp eq i64 %54, 0
  br i1 %.not, label %._crit_edge, label %.preheader, !llvm.loop !8

._crit_edge:                                      ; preds = %50, %8
  %.033.lcssa = phi i64 [ %.sroa.speculated, %8 ], [ %52, %50 ]
  %55 = getelementptr inbounds i8, ptr %0, i64 64
  %56 = load i64, ptr %55, align 8
  %57 = add i64 %56, %.033.lcssa
  store i64 %57, ptr %55, align 8
  %58 = udiv i64 %.033.lcssa, %2
  br label %59

59:                                               ; preds = %4, %._crit_edge
  %.0 = phi i64 [ %58, %._crit_edge ], [ 0, %4 ]
  ret i64 %.0

60:                                               ; preds = %41
  unreachable
}